; ModuleID = 'source-C-CXX/15/85.cpp'
source_filename = "source-C-CXX/15/85.cpp"
target datalayout = "e-m:e-p270:32:32-p271:32:32-p272:64:64-i64:64-f80:128-n8:16:32:64-S128"
target triple = "x86_64-pc-linux-gnu"

%"class.std::ios_base::Init" = type { i8 }
%"class.std::basic_istream" = type { i32 (...)**, i64, %"class.std::basic_ios" }
%"class.std::basic_ios" = type { %"class.std::ios_base", %"class.std::basic_ostream"*, i8, i8, %"class.std::basic_streambuf"*, %"class.std::ctype"*, %"class.std::num_put"*, %"class.std::num_get"* }
%"class.std::ios_base" = type { i32 (...)**, i64, i64, i32, i32, i32, %"struct.std::ios_base::_Callback_list"*, %"struct.std::ios_base::_Words", [8 x %"struct.std::ios_base::_Words"], i32, %"struct.std::ios_base::_Words"*, %"class.std::locale" }
%"struct.std::ios_base::_Callback_list" = type { %"struct.std::ios_base::_Callback_list"*, void (i32, %"class.std::ios_base"*, i32)*, i32, i32 }
%"struct.std::ios_base::_Words" = type { i8*, i64 }
%"class.std::locale" = type { %"class.std::locale::_Impl"* }
%"class.std::locale::_Impl" = type { i32, %"class.std::locale::facet"**, i64, %"class.std::locale::facet"**, i8** }
%"class.std::locale::facet" = type <{ i32 (...)**, i32, [4 x i8] }>
%"class.std::basic_ostream" = type { i32 (...)**, %"class.std::basic_ios" }
%"class.std::basic_streambuf" = type { i32 (...)**, i8*, i8*, i8*, i8*, i8*, i8*, %"class.std::locale" }
%"class.std::ctype" = type <{ %"class.std::locale::facet.base", [4 x i8], %struct.__locale_struct*, i8, [7 x i8], i32*, i32*, i16*, i8, [256 x i8], [256 x i8], i8, [6 x i8] }>
%"class.std::locale::facet.base" = type <{ i32 (...)**, i32 }>
%struct.__locale_struct = type { [13 x %struct.__locale_data*], i16*, i32*, i32*, [13 x i8*] }
%struct.__locale_data = type opaque
%"class.std::num_put" = type { %"class.std::locale::facet.base", [4 x i8] }
%"class.std::num_get" = type { %"class.std::locale::facet.base", [4 x i8] }

@_ZStL8__ioinit = internal global %"class.std::ios_base::Init" zeroinitializer, align 1
@__dso_handle = external hidden global i8
@_ZSt3cin = external global %"class.std::basic_istream", align 8
@_ZSt4cout = external global %"class.std::basic_ostream", align 8
@llvm.global_ctors = appending global [1 x { i32, void ()*, i8* }] [{ i32, void ()*, i8* } { i32 65535, void ()* @_GLOBAL__sub_I_85.cpp, i8* null }]

declare void @_ZNSt8ios_base4InitC1Ev(%"class.std::ios_base::Init"* nonnull align 1 dereferenceable(1)) unnamed_addr #0

; Function Attrs: nounwind
declare void @_ZNSt8ios_base4InitD1Ev(%"class.std::ios_base::Init"* nonnull align 1 dereferenceable(1)) unnamed_addr #1

; Function Attrs: nofree nounwind
declare i32 @__cxa_atexit(void (i8*)*, i8*, i8*) local_unnamed_addr #2

; Function Attrs: mustprogress norecurse sspstrong uwtable
define dso_local i32 @main() local_unnamed_addr #3 {
  %1 = alloca [100 x i8], align 16
  %2 = alloca [100 x i8], align 16
  %3 = getelementptr inbounds [100 x i8], [100 x i8]* %1, i64 0, i64 0
  call void @llvm.lifetime.start.p0i8(i64 100, i8* nonnull %3) #8
  %4 = getelementptr inbounds [100 x i8], [100 x i8]* %2, i64 0, i64 0
  call void @llvm.lifetime.start.p0i8(i64 100, i8* nonnull %4) #8
  call void @_ZSt17__istream_extractRSiPcl(%"class.std::basic_istream"* nonnull align 8 dereferenceable(16) @_ZSt3cin, i8* nonnull %3, i64 100)
  %5 = call i64 @strlen(i8* noundef nonnull %3) #9
  %6 = trunc i64 %5 to i32
  %7 = icmp sgt i32 %6, 0
  br i1 %7, label %8, label %125

8:                                                ; preds = %0
  %9 = and i64 %5, 4294967295
  %10 = icmp ult i64 %9, 8
  br i1 %10, label %71, label %11

11:                                               ; preds = %8
  %12 = add nsw i64 %9, -1
  %13 = add nsw i32 %6, -1
  %14 = trunc i64 %12 to i32
  %15 = icmp ult i32 %13, %14
  %16 = icmp ugt i64 %12, 4294967295
  %17 = or i1 %15, %16
  br i1 %17, label %71, label %18

18:                                               ; preds = %11
  %19 = icmp ult i64 %9, 32
  br i1 %19, label %49, label %20

20:                                               ; preds = %18
  %21 = and i64 %5, 31
  %22 = sub nsw i64 %9, %21
  br label %23

23:                                               ; preds = %23, %20
  %24 = phi i64 [ 0, %20 ], [ %41, %23 ]
  %25 = xor i64 %24, -1
  %26 = add i64 %5, %25
  %27 = and i64 %26, 4294967295
  %28 = getelementptr inbounds [100 x i8], [100 x i8]* %1, i64 0, i64 %27
  %29 = getelementptr inbounds i8, i8* %28, i64 -15
  %30 = bitcast i8* %29 to <16 x i8>*
  %31 = load <16 x i8>, <16 x i8>* %30, align 1, !tbaa !5
  %32 = shufflevector <16 x i8> %31, <16 x i8> poison, <16 x i32> <i32 15, i32 14, i32 13, i32 12, i32 11, i32 10, i32 9, i32 8, i32 7, i32 6, i32 5, i32 4, i32 3, i32 2, i32 1, i32 0>
  %33 = getelementptr inbounds i8, i8* %28, i64 -31
  %34 = bitcast i8* %33 to <16 x i8>*
  %35 = load <16 x i8>, <16 x i8>* %34, align 1, !tbaa !5
  %36 = shufflevector <16 x i8> %35, <16 x i8> poison, <16 x i32> <i32 15, i32 14, i32 13, i32 12, i32 11, i32 10, i32 9, i32 8, i32 7, i32 6, i32 5, i32 4, i32 3, i32 2, i32 1, i32 0>
  %37 = getelementptr inbounds [100 x i8], [100 x i8]* %2, i64 0, i64 %24
  %38 = bitcast i8* %37 to <16 x i8>*
  store <16 x i8> %32, <16 x i8>* %38, align 16, !tbaa !5
  %39 = getelementptr inbounds i8, i8* %37, i64 16
  %40 = bitcast i8* %39 to <16 x i8>*
  store <16 x i8> %36, <16 x i8>* %40, align 16, !tbaa !5
  %41 = add nuw i64 %24, 32
  %42 = icmp eq i64 %41, %22
  br i1 %42, label %43, label %23, !llvm.loop !8

43:                                               ; preds = %23
  %44 = icmp eq i64 %21, 0
  br i1 %44, label %123, label %45

45:                                               ; preds = %43
  %46 = trunc i64 %22 to i32
  %47 = sub i32 %6, %46
  %48 = icmp ult i64 %21, 8
  br i1 %48, label %71, label %49

49:                                               ; preds = %18, %45
  %50 = phi i64 [ %22, %45 ], [ 0, %18 ]
  %51 = and i64 %5, 7
  %52 = sub nsw i64 %9, %51
  %53 = trunc i64 %52 to i32
  %54 = sub i32 %6, %53
  br label %55

55:                                               ; preds = %55, %49
  %56 = phi i64 [ %50, %49 ], [ %67, %55 ]
  %57 = xor i64 %56, -1
  %58 = add i64 %5, %57
  %59 = and i64 %58, 4294967295
  %60 = getelementptr inbounds [100 x i8], [100 x i8]* %1, i64 0, i64 %59
  %61 = getelementptr inbounds i8, i8* %60, i64 -7
  %62 = bitcast i8* %61 to <8 x i8>*
  %63 = load <8 x i8>, <8 x i8>* %62, align 1, !tbaa !5
  %64 = shufflevector <8 x i8> %63, <8 x i8> poison, <8 x i32> <i32 7, i32 6, i32 5, i32 4, i32 3, i32 2, i32 1, i32 0>
  %65 = getelementptr inbounds [100 x i8], [100 x i8]* %2, i64 0, i64 %56
  %66 = bitcast i8* %65 to <8 x i8>*
  store <8 x i8> %64, <8 x i8>* %66, align 1, !tbaa !5
  %67 = add nuw i64 %56, 8
  %68 = icmp eq i64 %67, %52
  br i1 %68, label %69, label %55, !llvm.loop !11

69:                                               ; preds = %55
  %70 = icmp eq i64 %51, 0
  br i1 %70, label %123, label %71

71:                                               ; preds = %11, %8, %45, %69
  %72 = phi i64 [ 0, %8 ], [ 0, %11 ], [ %22, %45 ], [ %52, %69 ]
  %73 = phi i32 [ %6, %8 ], [ %6, %11 ], [ %47, %45 ], [ %54, %69 ]
  %74 = sub i64 %5, %72
  %75 = xor i64 %72, -1
  %76 = add nsw i64 %9, %75
  %77 = and i64 %74, 3
  %78 = icmp eq i64 %77, 0
  br i1 %78, label %91, label %79

79:                                               ; preds = %71, %79
  %80 = phi i64 [ %87, %79 ], [ %72, %71 ]
  %81 = phi i32 [ %83, %79 ], [ %73, %71 ]
  %82 = phi i64 [ %89, %79 ], [ %77, %71 ]
  %83 = add nsw i32 %81, -1
  %84 = zext i32 %83 to i64
  %85 = getelementptr inbounds [100 x i8], [100 x i8]* %1, i64 0, i64 %84
  %86 = load i8, i8* %85, align 1, !tbaa !5
  %87 = add nuw nsw i64 %80, 1
  %88 = getelementptr inbounds [100 x i8], [100 x i8]* %2, i64 0, i64 %80
  store i8 %86, i8* %88, align 1, !tbaa !5
  %89 = add i64 %82, -1
  %90 = icmp eq i64 %89, 0
  br i1 %90, label %91, label %79, !llvm.loop !12

91:                                               ; preds = %79, %71
  %92 = phi i64 [ %72, %71 ], [ %87, %79 ]
  %93 = phi i32 [ %73, %71 ], [ %83, %79 ]
  %94 = icmp ult i64 %76, 3
  br i1 %94, label %123, label %95

95:                                               ; preds = %91, %95
  %96 = phi i64 [ %120, %95 ], [ %92, %91 ]
  %97 = phi i32 [ %116, %95 ], [ %93, %91 ]
  %98 = add nsw i32 %97, -1
  %99 = zext i32 %98 to i64
  %100 = getelementptr inbounds [100 x i8], [100 x i8]* %1, i64 0, i64 %99
  %101 = load i8, i8* %100, align 1, !tbaa !5
  %102 = add nuw nsw i64 %96, 1
  %103 = getelementptr inbounds [100 x i8], [100 x i8]* %2, i64 0, i64 %96
  store i8 %101, i8* %103, align 1, !tbaa !5
  %104 = add nsw i32 %97, -2
  %105 = zext i32 %104 to i64
  %106 = getelementptr inbounds [100 x i8], [100 x i8]* %1, i64 0, i64 %105
  %107 = load i8, i8* %106, align 1, !tbaa !5
  %108 = add nuw nsw i64 %96, 2
  %109 = getelementptr inbounds [100 x i8], [100 x i8]* %2, i64 0, i64 %102
  store i8 %107, i8* %109, align 1, !tbaa !5
  %110 = add nsw i32 %97, -3
  %111 = zext i32 %110 to i64
  %112 = getelementptr inbounds [100 x i8], [100 x i8]* %1, i64 0, i64 %111
  %113 = load i8, i8* %112, align 1, !tbaa !5
  %114 = add nuw nsw i64 %96, 3
  %115 = getelementptr inbounds [100 x i8], [100 x i8]* %2, i64 0, i64 %108
  store i8 %113, i8* %115, align 1, !tbaa !5
  %116 = add nsw i32 %97, -4
  %117 = zext i32 %116 to i64
  %118 = getelementptr inbounds [100 x i8], [100 x i8]* %1, i64 0, i64 %117
  %119 = load i8, i8* %118, align 1, !tbaa !5
  %120 = add nuw nsw i64 %96, 4
  %121 = getelementptr inbounds [100 x i8], [100 x i8]* %2, i64 0, i64 %114
  store i8 %119, i8* %121, align 1, !tbaa !5
  %122 = icmp eq i64 %120, %9
  br i1 %122, label %123, label %95, !llvm.loop !14

123:                                              ; preds = %91, %95, %69, %43
  %124 = and i64 %5, 4294967295
  br label %125

125:                                              ; preds = %0, %123
  %126 = phi i64 [ %124, %123 ], [ 0, %0 ]
  %127 = getelementptr inbounds [100 x i8], [100 x i8]* %2, i64 0, i64 %126
  store i8 0, i8* %127, align 1, !tbaa !5
  %128 = call i64 @strlen(i8* noundef nonnull dereferenceable(1) %4) #8
  %129 = call nonnull align 8 dereferenceable(8) %"class.std::basic_ostream"* @_ZSt16__ostream_insertIcSt11char_traitsIcEERSt13basic_ostreamIT_T0_ES6_PKS3_l(%"class.std::basic_ostream"* nonnull align 8 dereferenceable(8) @_ZSt4cout, i8* nonnull %4, i64 %128)
  %130 = load i8*, i8** bitcast (%"class.std::basic_ostream"* @_ZSt4cout to i8**), align 8, !tbaa !15
  %131 = getelementptr i8, i8* %130, i64 -24
  %132 = bitcast i8* %131 to i64*
  %133 = load i64, i64* %132, align 8
  %134 = add nsw i64 %133, 240
  %135 = getelementptr inbounds i8, i8* bitcast (%"class.std::basic_ostream"* @_ZSt4cout to i8*), i64 %134
  %136 = bitcast i8* %135 to %"class.std::ctype"**
  %137 = load %"class.std::ctype"*, %"class.std::ctype"** %136, align 8, !tbaa !17
  %138 = icmp eq %"class.std::ctype"* %137, null
  br i1 %138, label %139, label %140

139:                                              ; preds = %125
  call void @_ZSt16__throw_bad_castv() #10
  unreachable

140:                                              ; preds = %125
  %141 = getelementptr inbounds %"class.std::ctype", %"class.std::ctype"* %137, i64 0, i32 8
  %142 = load i8, i8* %141, align 8, !tbaa !21
  %143 = icmp eq i8 %142, 0
  br i1 %143, label %147, label %144

144:                                              ; preds = %140
  %145 = getelementptr inbounds %"class.std::ctype", %"class.std::ctype"* %137, i64 0, i32 9, i64 10
  %146 = load i8, i8* %145, align 1, !tbaa !5
  br label %153

147:                                              ; preds = %140
  call void @_ZNKSt5ctypeIcE13_M_widen_initEv(%"class.std::ctype"* nonnull align 8 dereferenceable(570) %137)
  %148 = bitcast %"class.std::ctype"* %137 to i8 (%"class.std::ctype"*, i8)***
  %149 = load i8 (%"class.std::ctype"*, i8)**, i8 (%"class.std::ctype"*, i8)*** %148, align 8, !tbaa !15
  %150 = getelementptr inbounds i8 (%"class.std::ctype"*, i8)*, i8 (%"class.std::ctype"*, i8)** %149, i64 6
  %151 = load i8 (%"class.std::ctype"*, i8)*, i8 (%"class.std::ctype"*, i8)** %150, align 8
  %152 = call signext i8 %151(%"class.std::ctype"* nonnull align 8 dereferenceable(570) %137, i8 signext 10)
  br label %153

153:                                              ; preds = %144, %147
  %154 = phi i8 [ %146, %144 ], [ %152, %147 ]
  %155 = call nonnull align 8 dereferenceable(8) %"class.std::basic_ostream"* @_ZNSo3putEc(%"class.std::basic_ostream"* nonnull align 8 dereferenceable(8) @_ZSt4cout, i8 signext %154)
  %156 = call nonnull align 8 dereferenceable(8) %"class.std::basic_ostream"* @_ZNSo5flushEv(%"class.std::basic_ostream"* nonnull align 8 dereferenceable(8) %155)
  call void @llvm.lifetime.end.p0i8(i64 100, i8* nonnull %4) #8
  call void @llvm.lifetime.end.p0i8(i64 100, i8* nonnull %3) #8
  ret i32 0
}

; Function Attrs: argmemonly mustprogress nofree nosync nounwind willreturn
declare void @llvm.lifetime.start.p0i8(i64 immarg, i8* nocapture) #4

; Function Attrs: argmemonly mustprogress nofree nounwind readonly willreturn
declare i64 @strlen(i8* nocapture) local_unnamed_addr #5

; Function Attrs: argmemonly mustprogress nofree nosync nounwind willreturn
declare void @llvm.lifetime.end.p0i8(i64 immarg, i8* nocapture) #4

declare void @_ZSt17__istream_extractRSiPcl(%"class.std::basic_istream"* nonnull align 8 dereferenceable(16), i8*, i64) local_unnamed_addr #0

declare nonnull align 8 dereferenceable(8) %"class.std::basic_ostream"* @_ZSt16__ostream_insertIcSt11char_traitsIcEERSt13basic_ostreamIT_T0_ES6_PKS3_l(%"class.std::basic_ostream"* nonnull align 8 dereferenceable(8), i8*, i64) local_unnamed_addr #0

declare nonnull align 8 dereferenceable(8) %"class.std::basic_ostream"* @_ZNSo3putEc(%"class.std::basic_ostream"* nonnull align 8 dereferenceable(8), i8 signext) local_unnamed_addr #0

declare nonnull align 8 dereferenceable(8) %"class.std::basic_ostream"* @_ZNSo5flushEv(%"class.std::basic_ostream"* nonnull align 8 dereferenceable(8)) local_unnamed_addr #0

; Function Attrs: noreturn
declare void @_ZSt16__throw_bad_castv() local_unnamed_addr #6

declare void @_ZNKSt5ctypeIcE13_M_widen_initEv(%"class.std::ctype"* nonnull align 8 dereferenceable(570)) local_unnamed_addr #0

; Function Attrs: sspstrong uwtable
define internal void @_GLOBAL__sub_I_85.cpp() #7 section ".text.startup" {
  tail call void @_ZNSt8ios_base4InitC1Ev(%"class.std::ios_base::Init"* nonnull align 1 dereferenceable(1) @_ZStL8__ioinit)
  %1 = tail call i32 @__cxa_atexit(void (i8*)* bitcast (void (%"class.std::ios_base::Init"*)* @_ZNSt8ios_base4InitD1Ev to void (i8*)*), i8* getelementptr inbounds (%"class.std::ios_base::Init", %"class.std::ios_base::Init"* @_ZStL8__ioinit, i64 0, i32 0), i8* nonnull @__dso_handle) #8
  ret void
}


!llvm.module.flags = !{!0, !1, !2, !3}
!llvm.ident = !{!4}

!0 = !{i32 1, !"wchar_size", i32 4}
!1 = !{i32 7, !"PIC Level", i32 2}
!2 = !{i32 7, !"PIE Level", i32 2}
!3 = !{i32 7, !"uwtable", i32 1}
!4 = !{!"clang version 13.0.0"}
!5 = !{!6, !6, i64 0}
!6 = !{!"omnipotent char", !7, i64 0}
!7 = !{!"Simple C++ TBAA"}
!8 = distinct !{!8, !9, !10}
!9 = !{!"llvm.loop.mustprogress"}
!10 = !{!"llvm.loop.isvectorized", i32 1}
!11 = distinct !{!11, !9, !10}
!12 = distinct !{!12, !13}
!13 = !{!"llvm.loop.unroll.disable"}
!14 = distinct !{!14, !9, !10}
!15 = !{!16, !16, i64 0}
!16 = !{!"vtable pointer", !7, i64 0}
!17 = !{!18, !19, i64 240}
!18 = !{!"_ZTSSt9basic_iosIcSt11char_traitsIcEE", !19, i64 216, !6, i64 224, !20, i64 225, !19, i64 232, !19, i64 240, !19, i64 248, !19, i64 256}
!19 = !{!"any pointer", !6, i64 0}
!20 = !{!"bool", !6, i64 0}
!21 = !{!22, !6, i64 56}
!22 = !{!"_ZTSSt5ctypeIcE", !19, i64 16, !20, i64 24, !19, i64 32, !19, i64 40, !19, i64 48, !6, i64 56, !6, i64 57, !6, i64 313, !6, i64 569}
